; ModuleID = '22/621.c'
source_filename = "22/621.c"
target datalayout = "e-m:e-p270:32:32-p271:32:32-p272:64:64-i64:64-f80:128-n8:16:32:64-S128"
target triple = "x86_64-pc-linux-gnu"

@.str = private unnamed_addr constant [5 x i8] c"%d%c\00", align 1
@.str.1 = private unnamed_addr constant [3 x i8] c"No\00", align 1
@.str.2 = private unnamed_addr constant [3 x i8] c"%d\00", align 1

; Function Attrs: noinline nounwind uwtable
define dso_local void @main() #0 {
  %1 = alloca [300 x i32], align 16
  %2 = alloca i32, align 4
  %3 = alloca i32, align 4
  %4 = alloca i32, align 4
  %5 = alloca i32, align 4
  %6 = alloca i32, align 4
  %7 = alloca i8, align 1
  %8 = bitcast [300 x i32]* %1 to i8*
  call void @llvm.memset.p0i8.i64(i8* align 16 %8, i8 0, i64 1200, i1 false)
  store i32 0, i32* %3, align 4
  store i32 0, i32* %6, align 4
  store i32 0, i32* %2, align 4
  br label %9

9:                                                ; preds = %24, %0
  %10 = load i32, i32* %2, align 4
  %11 = icmp slt i32 %10, 300
  br i1 %11, label %12, label %27

12:                                               ; preds = %9
  %13 = load i32, i32* %2, align 4
  %14 = sext i32 %13 to i64
  %15 = getelementptr inbounds [300 x i32], [300 x i32]* %1, i64 0, i64 %14
  %16 = call i32 (i8*, ...) @__isoc99_scanf(i8* getelementptr inbounds ([5 x i8], [5 x i8]* @.str, i64 0, i64 0), i32* %15, i8* %7)
  %17 = load i32, i32* %3, align 4
  %18 = add nsw i32 %17, 1
  store i32 %18, i32* %3, align 4
  %19 = load i8, i8* %7, align 1
  %20 = sext i8 %19 to i32
  %21 = icmp eq i32 %20, 10
  br i1 %21, label %22, label %23

22:                                               ; preds = %12
  br label %27

23:                                               ; preds = %12
  br label %24

24:                                               ; preds = %23
  %25 = load i32, i32* %2, align 4
  %26 = add nsw i32 %25, 1
  store i32 %26, i32* %2, align 4
  br label %9

27:                                               ; preds = %22, %9
  %28 = load i32, i32* %3, align 4
  %29 = icmp ne i32 %28, 1
  br i1 %29, label %30, label %126

30:                                               ; preds = %27
  store i32 0, i32* %4, align 4
  br label %31

31:                                               ; preds = %75, %30
  %32 = load i32, i32* %4, align 4
  %33 = load i32, i32* %3, align 4
  %34 = sub nsw i32 %33, 1
  %35 = icmp slt i32 %32, %34
  br i1 %35, label %36, label %78

36:                                               ; preds = %31
  %37 = load i32, i32* %4, align 4
  store i32 %37, i32* %2, align 4
  br label %38

38:                                               ; preds = %71, %36
  %39 = load i32, i32* %2, align 4
  %40 = load i32, i32* %3, align 4
  %41 = icmp slt i32 %39, %40
  br i1 %41, label %42, label %74

42:                                               ; preds = %38
  %43 = load i32, i32* %4, align 4
  %44 = sext i32 %43 to i64
  %45 = getelementptr inbounds [300 x i32], [300 x i32]* %1, i64 0, i64 %44
  %46 = load i32, i32* %45, align 4
  %47 = load i32, i32* %2, align 4
  %48 = sext i32 %47 to i64
  %49 = getelementptr inbounds [300 x i32], [300 x i32]* %1, i64 0, i64 %48
  %50 = load i32, i32* %49, align 4
  %51 = icmp slt i32 %46, %50
  br i1 %51, label %52, label %70

52:                                               ; preds = %42
  %53 = load i32, i32* %4, align 4
  %54 = sext i32 %53 to i64
  %55 = getelementptr inbounds [300 x i32], [300 x i32]* %1, i64 0, i64 %54
  %56 = load i32, i32* %55, align 4
  store i32 %56, i32* %5, align 4
  %57 = load i32, i32* %2, align 4
  %58 = sext i32 %57 to i64
  %59 = getelementptr inbounds [300 x i32], [300 x i32]* %1, i64 0, i64 %58
  %60 = load i32, i32* %59, align 4
  %61 = load i32, i32* %4, align 4
  %62 = sext i32 %61 to i64
  %63 = getelementptr inbounds [300 x i32], [300 x i32]* %1, i64 0, i64 %62
  store i32 %60, i32* %63, align 4
  %64 = load i32, i32* %5, align 4
  %65 = load i32, i32* %2, align 4
  %66 = sext i32 %65 to i64
  %67 = getelementptr inbounds [300 x i32], [300 x i32]* %1, i64 0, i64 %66
  store i32 %64, i32* %67, align 4
  %68 = load i32, i32* %6, align 4
  %69 = add nsw i32 %68, 1
  store i32 %69, i32* %6, align 4
  br label %70

70:                                               ; preds = %52, %42
  br label %71

71:                                               ; preds = %70
  %72 = load i32, i32* %2, align 4
  %73 = add nsw i32 %72, 1
  store i32 %73, i32* %2, align 4
  br label %38

74:                                               ; preds = %38
  br label %75

75:                                               ; preds = %74
  %76 = load i32, i32* %4, align 4
  %77 = add nsw i32 %76, 1
  store i32 %77, i32* %4, align 4
  br label %31

78:                                               ; preds = %31
  %79 = load i32, i32* %6, align 4
  %80 = icmp eq i32 %79, 0
  br i1 %80, label %81, label %86

81:                                               ; preds = %78
  %82 = load i32, i32* %2, align 4
  %83 = icmp sgt i32 %82, 0
  br i1 %83, label %84, label %86

84:                                               ; preds = %81
  %85 = call i32 (i8*, ...) @printf(i8* getelementptr inbounds ([3 x i8], [3 x i8]* @.str.1, i64 0, i64 0))
  br label %86

86:                                               ; preds = %84, %81, %78
  %87 = load i32, i32* %6, align 4
  %88 = icmp ne i32 %87, 0
  br i1 %88, label %89, label %125

89:                                               ; preds = %86
  store i32 0, i32* %2, align 4
  br label %90

90:                                               ; preds = %115, %89
  %91 = load i32, i32* %2, align 4
  %92 = load i32, i32* %3, align 4
  %93 = sub nsw i32 %92, 1
  %94 = icmp slt i32 %91, %93
  br i1 %94, label %95, label %118

95:                                               ; preds = %90
  %96 = load i32, i32* %2, align 4
  %97 = sext i32 %96 to i64
  %98 = getelementptr inbounds [300 x i32], [300 x i32]* %1, i64 0, i64 %97
  %99 = load i32, i32* %98, align 4
  %100 = load i32, i32* %2, align 4
  %101 = add nsw i32 %100, 1
  %102 = sext i32 %101 to i64
  %103 = getelementptr inbounds [300 x i32], [300 x i32]* %1, i64 0, i64 %102
  %104 = load i32, i32* %103, align 4
  %105 = icmp ne i32 %99, %104
  br i1 %105, label %106, label %114

106:                                              ; preds = %95
  %107 = load i32, i32* %2, align 4
  %108 = add nsw i32 %107, 1
  %109 = sext i32 %108 to i64
  %110 = getelementptr inbounds [300 x i32], [300 x i32]* %1, i64 0, i64 %109
  %111 = load i32, i32* %110, align 4
  %112 = icmp ne i32 %111, 0
  br i1 %112, label %113, label %114

113:                                              ; preds = %106
  br label %118

114:                                              ; preds = %106, %95
  br label %115

115:                                              ; preds = %114
  %116 = load i32, i32* %2, align 4
  %117 = add nsw i32 %116, 1
  store i32 %117, i32* %2, align 4
  br label %90

118:                                              ; preds = %113, %90
  %119 = load i32, i32* %2, align 4
  %120 = add nsw i32 %119, 1
  %121 = sext i32 %120 to i64
  %122 = getelementptr inbounds [300 x i32], [300 x i32]* %1, i64 0, i64 %121
  %123 = load i32, i32* %122, align 4
  %124 = call i32 (i8*, ...) @printf(i8* getelementptr inbounds ([3 x i8], [3 x i8]* @.str.2, i64 0, i64 0), i32 %123)
  br label %125

125:                                              ; preds = %118, %86
  br label %126

126:                                              ; preds = %125, %27
  %127 = load i32, i32* %3, align 4
  %128 = icmp eq i32 %127, 1
  br i1 %128, label %129, label %131

129:                                              ; preds = %126
  %130 = call i32 (i8*, ...) @printf(i8* getelementptr inbounds ([3 x i8], [3 x i8]* @.str.1, i64 0, i64 0))
  br label %131

131:                                              ; preds = %129, %126
  ret void
}

; Function Attrs: argmemonly nounwind willreturn
declare void @llvm.memset.p0i8.i64(i8* nocapture writeonly, i8, i64, i1 immarg) #1

declare dso_local i32 @__isoc99_scanf(i8*, ...) #2

declare dso_local i32 @printf(i8*, ...) #2


!llvm.module.flags = !{!0}
!llvm.ident = !{!1}

!0 = !{i32 1, !"wchar_size", i32 4}
!1 = !{!"clang version 10.0.0-4ubuntu1 "}
